(dp1
(I0
I1
tp2
(dp3
(I0
I1
tp4
(dp5
(I0
I1
tp6
F20
s(I1
I2
tp7
F20
s(I0
I0
tp8
F20
s(I0
I2
tp9
F20
s(I1
I0
tp10
F20
s(I1
I1
tp11
F20
ss(I-1
I1
tp12
(dp13
(I0
I1
tp14
F20
s(I1
I2
tp15
F20
s(I0
I0
tp16
F20
s(I0
I2
tp17
F20
s(I1
I0
tp18
F20
s(I1
I1
tp19
F20
ss(I0
I0
tp20
(dp21
(I0
I1
tp22
F20
s(I1
I2
tp23
F20
s(I0
I0
tp24
F20
s(I0
I2
tp25
F20
s(I1
I0
tp26
F20
s(I1
I1
tp27
F20
ss(I-1
I0
tp28
(dp29
(I0
I1
tp30
F20
s(I1
I2
tp31
F20
s(I0
I0
tp32
F20
s(I0
I2
tp33
F20
s(I1
I0
tp34
F20
s(I1
I1
tp35
F20
ss(I-1
I-1
tp36
(dp37
(I0
I1
tp38
F20
s(I1
I2
tp39
F20
s(I0
I0
tp40
F20
s(I0
I2
tp41
F20
s(I1
I0
tp42
F20
s(I1
I1
tp43
F20
ss(I0
I-1
tp44
(dp45
(I0
I1
tp46
F20
s(I1
I2
tp47
F20
s(I0
I0
tp48
F20
s(I0
I2
tp49
F20
s(I1
I0
tp50
F20
s(I1
I1
tp51
F20
ss(I1
I0
tp52
(dp53
(I0
I1
tp54
F20
s(I1
I2
tp55
F20
s(I0
I0
tp56
F20
s(I0
I2
tp57
F20
s(I1
I0
tp58
F20
s(I1
I1
tp59
F20
ss(I1
I-1
tp60
(dp61
(I0
I1
tp62
F20
s(I1
I2
tp63
F20
s(I0
I0
tp64
F20
s(I0
I2
tp65
F20
s(I1
I0
tp66
F20
s(I1
I1
tp67
F20
ss(I1
I1
tp68
(dp69
(I0
I1
tp70
F20
s(I1
I2
tp71
F20
s(I0
I0
tp72
F20
s(I0
I2
tp73
F20
s(I1
I0
tp74
F20
s(I1
I1
tp75
F20
sss(I1
I2
tp76
(dp77
(I0
I1
tp78
(dp79
(I0
I1
tp80
F20
s(I1
I2
tp81
F20
s(I2
I1
tp82
F20
s(I1
I1
tp83
F20
s(I2
I2
tp84
F20
s(I0
I2
tp85
F20
ss(I-1
I1
tp86
(dp87
(I0
I1
tp88
F20
s(I1
I2
tp89
F20
s(I2
I1
tp90
F20
s(I1
I1
tp91
F20
s(I2
I2
tp92
F20
s(I0
I2
tp93
F20
ss(I0
I0
tp94
(dp95
(I0
I1
tp96
F20
s(I1
I2
tp97
F20
s(I2
I1
tp98
F20
s(I1
I1
tp99
F20
s(I2
I2
tp100
F20
s(I0
I2
tp101
F20
ss(I-1
I0
tp102
(dp103
(I0
I1
tp104
F20
s(I1
I2
tp105
F20
s(I2
I1
tp106
F20
s(I1
I1
tp107
F20
s(I2
I2
tp108
F20
s(I0
I2
tp109
F20
ss(I-1
I-1
tp110
(dp111
(I0
I1
tp112
F20
s(I1
I2
tp113
F20
s(I2
I1
tp114
F20
s(I1
I1
tp115
F20
s(I2
I2
tp116
F20
s(I0
I2
tp117
F20
ss(I0
I-1
tp118
(dp119
(I0
I1
tp120
F20
s(I1
I2
tp121
F20
s(I2
I1
tp122
F20
s(I1
I1
tp123
F20
s(I2
I2
tp124
F20
s(I0
I2
tp125
F20
ss(I1
I0
tp126
(dp127
(I0
I1
tp128
F20
s(I1
I2
tp129
F20
s(I2
I1
tp130
F20
s(I1
I1
tp131
F20
s(I2
I2
tp132
F20
s(I0
I2
tp133
F20
ss(I1
I-1
tp134
(dp135
(I0
I1
tp136
F20
s(I1
I2
tp137
F20
s(I2
I1
tp138
F20
s(I1
I1
tp139
F20
s(I2
I2
tp140
F20
s(I0
I2
tp141
F20
ss(I1
I1
tp142
(dp143
(I0
I1
tp144
F20
s(I1
I2
tp145
F20
s(I2
I1
tp146
F20
s(I1
I1
tp147
F20
s(I2
I2
tp148
F20
s(I0
I2
tp149
F20
sss(I3
I2
tp150
(dp151
(I0
I1
tp152
(dp153
(I3
I2
tp154
F20
s(I3
I1
tp155
F20
s(I2
I1
tp156
F20
s(I2
I2
tp157
F20
s(I4
I2
tp158
F20
s(I4
I1
tp159
F20
ss(I-1
I1
tp160
(dp161
(I3
I2
tp162
F20
s(I3
I1
tp163
F20
s(I2
I1
tp164
F20
s(I2
I2
tp165
F20
s(I4
I2
tp166
F20
s(I4
I1
tp167
F20
ss(I0
I0
tp168
(dp169
(I3
I2
tp170
F20
s(I3
I1
tp171
F20
s(I2
I1
tp172
F20
s(I2
I2
tp173
F20
s(I4
I2
tp174
F20
s(I4
I1
tp175
F20
ss(I-1
I0
tp176
(dp177
(I3
I2
tp178
F20
s(I3
I1
tp179
F20
s(I2
I1
tp180
F20
s(I2
I2
tp181
F20
s(I4
I2
tp182
F20
s(I4
I1
tp183
F20
ss(I-1
I-1
tp184
(dp185
(I3
I2
tp186
F20
s(I3
I1
tp187
F20
s(I2
I1
tp188
F20
s(I2
I2
tp189
F20
s(I4
I2
tp190
F20
s(I4
I1
tp191
F20
ss(I0
I-1
tp192
(dp193
(I3
I2
tp194
F20
s(I3
I1
tp195
F20
s(I2
I1
tp196
F20
s(I2
I2
tp197
F20
s(I4
I2
tp198
F20
s(I4
I1
tp199
F20
ss(I1
I0
tp200
(dp201
(I3
I2
tp202
F20
s(I3
I1
tp203
F20
s(I2
I1
tp204
F20
s(I2
I2
tp205
F20
s(I4
I2
tp206
F20
s(I4
I1
tp207
F20
ss(I1
I-1
tp208
(dp209
(I3
I2
tp210
F20
s(I3
I1
tp211
F20
s(I2
I1
tp212
F20
s(I2
I2
tp213
F20
s(I4
I2
tp214
F20
s(I4
I1
tp215
F20
ss(I1
I1
tp216
(dp217
(I3
I2
tp218
F20
s(I3
I1
tp219
F20
s(I2
I1
tp220
F20
s(I2
I2
tp221
F20
s(I4
I2
tp222
F20
s(I4
I1
tp223
F20
sss(I0
I0
tp224
(dp225
(I0
I1
tp226
(dp227
(I0
I1
tp228
F20
s(I1
I0
tp229
F20
s(I0
I0
tp230
F20
s(I1
I1
tp231
F20
ss(I-1
I1
tp232
(dp233
(I0
I1
tp234
F20
s(I1
I0
tp235
F20
s(I0
I0
tp236
F20
s(I1
I1
tp237
F20
ss(I0
I0
tp238
(dp239
(I0
I1
tp240
F20
s(I1
I0
tp241
F20
s(I0
I0
tp242
F20
s(I1
I1
tp243
F20
ss(I-1
I0
tp244
(dp245
(I0
I1
tp246
F20
s(I1
I0
tp247
F20
s(I0
I0
tp248
F20
s(I1
I1
tp249
F20
ss(I-1
I-1
tp250
(dp251
(I0
I1
tp252
F20
s(I1
I0
tp253
F20
s(I0
I0
tp254
F20
s(I1
I1
tp255
F20
ss(I0
I-1
tp256
(dp257
(I0
I1
tp258
F20
s(I1
I0
tp259
F20
s(I0
I0
tp260
F20
s(I1
I1
tp261
F20
ss(I1
I0
tp262
(dp263
(I0
I1
tp264
F20
s(I1
I0
tp265
F20
s(I0
I0
tp266
F20
s(I1
I1
tp267
F20
ss(I1
I-1
tp268
(dp269
(I0
I1
tp270
F20
s(I1
I0
tp271
F20
s(I0
I0
tp272
F20
s(I1
I1
tp273
F20
ss(I1
I1
tp274
(dp275
(I0
I1
tp276
F20
s(I1
I0
tp277
F20
s(I0
I0
tp278
F20
s(I1
I1
tp279
F20
sss(I3
I0
tp280
(dp281
(I0
I1
tp282
(dp283
(I3
I0
tp284
F20
s(I3
I1
tp285
F20
s(I2
I1
tp286
F20
s(I2
I0
tp287
F20
s(I4
I1
tp288
F20
s(I4
I0
tp289
F20
ss(I-1
I1
tp290
(dp291
(I3
I0
tp292
F20
s(I3
I1
tp293
F20
s(I2
I1
tp294
F20
s(I2
I0
tp295
F20
s(I4
I1
tp296
F20
s(I4
I0
tp297
F20
ss(I0
I0
tp298
(dp299
(I3
I0
tp300
F20
s(I3
I1
tp301
F20
s(I2
I1
tp302
F20
s(I2
I0
tp303
F20
s(I4
I1
tp304
F20
s(I4
I0
tp305
F20
ss(I-1
I0
tp306
(dp307
(I3
I0
tp308
F20
s(I3
I1
tp309
F20
s(I2
I1
tp310
F20
s(I2
I0
tp311
F20
s(I4
I1
tp312
F20
s(I4
I0
tp313
F20
ss(I-1
I-1
tp314
(dp315
(I3
I0
tp316
F20
s(I3
I1
tp317
F20
s(I2
I1
tp318
F20
s(I2
I0
tp319
F20
s(I4
I1
tp320
F20
s(I4
I0
tp321
F20
ss(I0
I-1
tp322
(dp323
(I3
I0
tp324
F20
s(I3
I1
tp325
F20
s(I2
I1
tp326
F20
s(I2
I0
tp327
F20
s(I4
I1
tp328
F20
s(I4
I0
tp329
F20
ss(I1
I0
tp330
(dp331
(I3
I0
tp332
F20
s(I3
I1
tp333
F20
s(I2
I1
tp334
F20
s(I2
I0
tp335
F20
s(I4
I1
tp336
F20
s(I4
I0
tp337
F20
ss(I1
I-1
tp338
(dp339
(I3
I0
tp340
F20
s(I3
I1
tp341
F20
s(I2
I1
tp342
F20
s(I2
I0
tp343
F20
s(I4
I1
tp344
F20
s(I4
I0
tp345
F20
ss(I1
I1
tp346
(dp347
(I3
I0
tp348
F20
s(I3
I1
tp349
F20
s(I2
I1
tp350
F20
s(I2
I0
tp351
F20
s(I4
I1
tp352
F20
s(I4
I0
tp353
F20
sss(I4
I1
tp354
(dp355
(I0
I1
tp356
(dp357
(I3
I2
tp358
F20
s(I3
I0
tp359
F20
s(I4
I1
tp360
F20
s(I3
I1
tp361
F20
s(I5
I0
tp362
F20
s(I4
I2
tp363
F20
s(I5
I1
tp364
F20
s(I5
I2
tp365
F20
s(I4
I0
tp366
F20
ss(I-1
I1
tp367
(dp368
(I3
I2
tp369
F20
s(I3
I0
tp370
F20
s(I4
I1
tp371
F20
s(I3
I1
tp372
F20
s(I5
I0
tp373
F20
s(I4
I2
tp374
F20
s(I5
I1
tp375
F20
s(I5
I2
tp376
F20
s(I4
I0
tp377
F20
ss(I0
I0
tp378
(dp379
(I3
I2
tp380
F20
s(I3
I0
tp381
F20
s(I4
I1
tp382
F20
s(I3
I1
tp383
F20
s(I5
I0
tp384
F20
s(I4
I2
tp385
F20
s(I5
I1
tp386
F20
s(I5
I2
tp387
F20
s(I4
I0
tp388
F20
ss(I-1
I0
tp389
(dp390
(I3
I2
tp391
F20
s(I3
I0
tp392
F20
s(I4
I1
tp393
F20
s(I3
I1
tp394
F20
s(I5
I0
tp395
F20
s(I4
I2
tp396
F20
s(I5
I1
tp397
F20
s(I5
I2
tp398
F20
s(I4
I0
tp399
F20
ss(I-1
I-1
tp400
(dp401
(I3
I2
tp402
F20
s(I3
I0
tp403
F20
s(I4
I1
tp404
F20
s(I3
I1
tp405
F20
s(I5
I0
tp406
F20
s(I4
I2
tp407
F20
s(I5
I1
tp408
F20
s(I5
I2
tp409
F20
s(I4
I0
tp410
F20
ss(I0
I-1
tp411
(dp412
(I3
I2
tp413
F20
s(I3
I0
tp414
F20
s(I4
I1
tp415
F20
s(I3
I1
tp416
F20
s(I5
I0
tp417
F20
s(I4
I2
tp418
F20
s(I5
I1
tp419
F20
s(I5
I2
tp420
F20
s(I4
I0
tp421
F20
ss(I1
I0
tp422
(dp423
(I3
I2
tp424
F20
s(I3
I0
tp425
F20
s(I4
I1
tp426
F20
s(I3
I1
tp427
F20
s(I5
I0
tp428
F20
s(I4
I2
tp429
F20
s(I5
I1
tp430
F20
s(I5
I2
tp431
F20
s(I4
I0
tp432
F20
ss(I1
I-1
tp433
(dp434
(I3
I2
tp435
F20
s(I3
I0
tp436
F20
s(I4
I1
tp437
F20
s(I3
I1
tp438
F20
s(I5
I0
tp439
F20
s(I4
I2
tp440
F20
s(I5
I1
tp441
F20
s(I5
I2
tp442
F20
s(I4
I0
tp443
F20
ss(I1
I1
tp444
(dp445
(I3
I2
tp446
F20
s(I3
I0
tp447
F20
s(I4
I1
tp448
F20
s(I3
I1
tp449
F20
s(I5
I0
tp450
F20
s(I4
I2
tp451
F20
s(I5
I1
tp452
F20
s(I5
I2
tp453
F20
s(I4
I0
tp454
F20
sss(I4
I2
tp455
(dp456
(I0
I1
tp457
(dp458
(I3
I2
tp459
F20
s(I5
I2
tp460
F20
s(I3
I1
tp461
F20
s(I4
I2
tp462
F20
s(I5
I1
tp463
F20
s(I4
I1
tp464
F20
ss(I-1
I1
tp465
(dp466
(I3
I2
tp467
F20
s(I5
I2
tp468
F20
s(I3
I1
tp469
F20
s(I4
I2
tp470
F20
s(I5
I1
tp471
F20
s(I4
I1
tp472
F20
ss(I0
I0
tp473
(dp474
(I3
I2
tp475
F20
s(I5
I2
tp476
F20
s(I3
I1
tp477
F20
s(I4
I2
tp478
F20
s(I5
I1
tp479
F20
s(I4
I1
tp480
F20
ss(I-1
I0
tp481
(dp482
(I3
I2
tp483
F20
s(I5
I2
tp484
F20
s(I3
I1
tp485
F20
s(I4
I2
tp486
F20
s(I5
I1
tp487
F20
s(I4
I1
tp488
F20
ss(I-1
I-1
tp489
(dp490
(I3
I2
tp491
F20
s(I5
I2
tp492
F20
s(I3
I1
tp493
F20
s(I4
I2
tp494
F20
s(I5
I1
tp495
F20
s(I4
I1
tp496
F20
ss(I0
I-1
tp497
(dp498
(I3
I2
tp499
F20
s(I5
I2
tp500
F20
s(I3
I1
tp501
F20
s(I4
I2
tp502
F20
s(I5
I1
tp503
F20
s(I4
I1
tp504
F20
ss(I1
I0
tp505
(dp506
(I3
I2
tp507
F20
s(I5
I2
tp508
F20
s(I3
I1
tp509
F20
s(I4
I2
tp510
F20
s(I5
I1
tp511
F20
s(I4
I1
tp512
F20
ss(I1
I-1
tp513
(dp514
(I3
I2
tp515
F20
s(I5
I2
tp516
F20
s(I3
I1
tp517
F20
s(I4
I2
tp518
F20
s(I5
I1
tp519
F20
s(I4
I1
tp520
F20
ss(I1
I1
tp521
(dp522
(I3
I2
tp523
F20
s(I5
I2
tp524
F20
s(I3
I1
tp525
F20
s(I4
I2
tp526
F20
s(I5
I1
tp527
F20
s(I4
I1
tp528
F20
sss(I3
I1
tp529
(dp530
(I0
I1
tp531
(dp532
(I3
I2
tp533
F20
s(I3
I0
tp534
F20
s(I3
I1
tp535
F20
s(I2
I1
tp536
F20
s(I2
I0
tp537
F20
s(I2
I2
tp538
F20
s(I4
I2
tp539
F20
s(I4
I1
tp540
F20
s(I4
I0
tp541
F20
ss(I-1
I1
tp542
(dp543
(I3
I2
tp544
F20
s(I3
I0
tp545
F20
s(I3
I1
tp546
F20
s(I2
I1
tp547
F20
s(I2
I0
tp548
F20
s(I2
I2
tp549
F20
s(I4
I2
tp550
F20
s(I4
I1
tp551
F20
s(I4
I0
tp552
F20
ss(I0
I0
tp553
(dp554
(I3
I2
tp555
F20
s(I3
I0
tp556
F20
s(I3
I1
tp557
F20
s(I2
I1
tp558
F20
s(I2
I0
tp559
F20
s(I2
I2
tp560
F20
s(I4
I2
tp561
F20
s(I4
I1
tp562
F20
s(I4
I0
tp563
F20
ss(I-1
I0
tp564
(dp565
(I3
I2
tp566
F20
s(I3
I0
tp567
F20
s(I3
I1
tp568
F20
s(I2
I1
tp569
F20
s(I2
I0
tp570
F20
s(I2
I2
tp571
F20
s(I4
I2
tp572
F20
s(I4
I1
tp573
F20
s(I4
I0
tp574
F20
ss(I-1
I-1
tp575
(dp576
(I3
I2
tp577
F20
s(I3
I0
tp578
F20
s(I3
I1
tp579
F20
s(I2
I1
tp580
F20
s(I2
I0
tp581
F20
s(I2
I2
tp582
F20
s(I4
I2
tp583
F20
s(I4
I1
tp584
F20
s(I4
I0
tp585
F20
ss(I0
I-1
tp586
(dp587
(I3
I2
tp588
F20
s(I3
I0
tp589
F20
s(I3
I1
tp590
F20
s(I2
I1
tp591
F20
s(I2
I0
tp592
F20
s(I2
I2
tp593
F20
s(I4
I2
tp594
F20
s(I4
I1
tp595
F20
s(I4
I0
tp596
F20
ss(I1
I0
tp597
(dp598
(I3
I2
tp599
F20
s(I3
I0
tp600
F20
s(I3
I1
tp601
F20
s(I2
I1
tp602
F20
s(I2
I0
tp603
F20
s(I2
I2
tp604
F20
s(I4
I2
tp605
F20
s(I4
I1
tp606
F20
s(I4
I0
tp607
F20
ss(I1
I-1
tp608
(dp609
(I3
I2
tp610
F20
s(I3
I0
tp611
F20
s(I3
I1
tp612
F20
s(I2
I1
tp613
F20
s(I2
I0
tp614
F20
s(I2
I2
tp615
F20
s(I4
I2
tp616
F20
s(I4
I1
tp617
F20
s(I4
I0
tp618
F20
ss(I1
I1
tp619
(dp620
(I3
I2
tp621
F20
s(I3
I0
tp622
F20
s(I3
I1
tp623
F20
s(I2
I1
tp624
F20
s(I2
I0
tp625
F20
s(I2
I2
tp626
F20
s(I4
I2
tp627
F20
s(I4
I1
tp628
F20
s(I4
I0
tp629
F20
sss(I2
I1
tp630
(dp631
(I0
I1
tp632
(dp633
(I1
I2
tp634
F20
s(I3
I2
tp635
F20
s(I3
I0
tp636
F20
s(I3
I1
tp637
F20
s(I2
I1
tp638
F20
s(I2
I0
tp639
F20
s(I2
I2
tp640
F20
s(I1
I0
tp641
F20
s(I1
I1
tp642
F20
ss(I-1
I1
tp643
(dp644
(I1
I2
tp645
F20
s(I3
I2
tp646
F20
s(I3
I0
tp647
F20
s(I3
I1
tp648
F20
s(I2
I1
tp649
F20
s(I2
I0
tp650
F20
s(I2
I2
tp651
F20
s(I1
I0
tp652
F20
s(I1
I1
tp653
F20
ss(I0
I0
tp654
(dp655
(I1
I2
tp656
F20
s(I3
I2
tp657
F20
s(I3
I0
tp658
F20
s(I3
I1
tp659
F20
s(I2
I1
tp660
F20
s(I2
I0
tp661
F20
s(I2
I2
tp662
F20
s(I1
I0
tp663
F20
s(I1
I1
tp664
F20
ss(I-1
I0
tp665
(dp666
(I1
I2
tp667
F20
s(I3
I2
tp668
F20
s(I3
I0
tp669
F20
s(I3
I1
tp670
F20
s(I2
I1
tp671
F20
s(I2
I0
tp672
F20
s(I2
I2
tp673
F20
s(I1
I0
tp674
F20
s(I1
I1
tp675
F20
ss(I-1
I-1
tp676
(dp677
(I1
I2
tp678
F20
s(I3
I2
tp679
F20
s(I3
I0
tp680
F20
s(I3
I1
tp681
F20
s(I2
I1
tp682
F20
s(I2
I0
tp683
F20
s(I2
I2
tp684
F20
s(I1
I0
tp685
F20
s(I1
I1
tp686
F20
ss(I0
I-1
tp687
(dp688
(I1
I2
tp689
F20
s(I3
I2
tp690
F20
s(I3
I0
tp691
F20
s(I3
I1
tp692
F20
s(I2
I1
tp693
F20
s(I2
I0
tp694
F20
s(I2
I2
tp695
F20
s(I1
I0
tp696
F20
s(I1
I1
tp697
F20
ss(I1
I0
tp698
(dp699
(I1
I2
tp700
F20
s(I3
I2
tp701
F20
s(I3
I0
tp702
F20
s(I3
I1
tp703
F20
s(I2
I1
tp704
F20
s(I2
I0
tp705
F20
s(I2
I2
tp706
F20
s(I1
I0
tp707
F20
s(I1
I1
tp708
F20
ss(I1
I-1
tp709
(dp710
(I1
I2
tp711
F20
s(I3
I2
tp712
F20
s(I3
I0
tp713
F20
s(I3
I1
tp714
F20
s(I2
I1
tp715
F20
s(I2
I0
tp716
F20
s(I2
I2
tp717
F20
s(I1
I0
tp718
F20
s(I1
I1
tp719
F20
ss(I1
I1
tp720
(dp721
(I1
I2
tp722
F20
s(I3
I2
tp723
F20
s(I3
I0
tp724
F20
s(I3
I1
tp725
F20
s(I2
I1
tp726
F20
s(I2
I0
tp727
F20
s(I2
I2
tp728
F20
s(I1
I0
tp729
F20
s(I1
I1
tp730
F20
sss(I0
I2
tp731
(dp732
(I0
I1
tp733
(dp734
(I0
I1
tp735
F20
s(I1
I2
tp736
F20
s(I0
I2
tp737
F20
s(I1
I1
tp738
F20
ss(I-1
I1
tp739
(dp740
(I0
I1
tp741
F20
s(I1
I2
tp742
F20
s(I0
I2
tp743
F20
s(I1
I1
tp744
F20
ss(I0
I0
tp745
(dp746
(I0
I1
tp747
F20
s(I1
I2
tp748
F20
s(I0
I2
tp749
F20
s(I1
I1
tp750
F20
ss(I-1
I0
tp751
(dp752
(I0
I1
tp753
F20
s(I1
I2
tp754
F20
s(I0
I2
tp755
F20
s(I1
I1
tp756
F20
ss(I-1
I-1
tp757
(dp758
(I0
I1
tp759
F20
s(I1
I2
tp760
F20
s(I0
I2
tp761
F20
s(I1
I1
tp762
F20
ss(I0
I-1
tp763
(dp764
(I0
I1
tp765
F20
s(I1
I2
tp766
F20
s(I0
I2
tp767
F20
s(I1
I1
tp768
F20
ss(I1
I0
tp769
(dp770
(I0
I1
tp771
F20
s(I1
I2
tp772
F20
s(I0
I2
tp773
F20
s(I1
I1
tp774
F20
ss(I1
I-1
tp775
(dp776
(I0
I1
tp777
F20
s(I1
I2
tp778
F20
s(I0
I2
tp779
F20
s(I1
I1
tp780
F20
ss(I1
I1
tp781
(dp782
(I0
I1
tp783
F20
s(I1
I2
tp784
F20
s(I0
I2
tp785
F20
s(I1
I1
tp786
F20
sss(I2
I0
tp787
(dp788
(I0
I1
tp789
(dp790
(I3
I0
tp791
F20
s(I3
I1
tp792
F20
s(I2
I1
tp793
F20
s(I2
I0
tp794
F20
s(I1
I0
tp795
F20
s(I1
I1
tp796
F20
ss(I-1
I1
tp797
(dp798
(I3
I0
tp799
F20
s(I3
I1
tp800
F20
s(I2
I1
tp801
F20
s(I2
I0
tp802
F20
s(I1
I0
tp803
F20
s(I1
I1
tp804
F20
ss(I0
I0
tp805
(dp806
(I3
I0
tp807
F20
s(I3
I1
tp808
F20
s(I2
I1
tp809
F20
s(I2
I0
tp810
F20
s(I1
I0
tp811
F20
s(I1
I1
tp812
F20
ss(I-1
I0
tp813
(dp814
(I3
I0
tp815
F20
s(I3
I1
tp816
F20
s(I2
I1
tp817
F20
s(I2
I0
tp818
F20
s(I1
I0
tp819
F20
s(I1
I1
tp820
F20
ss(I-1
I-1
tp821
(dp822
(I3
I0
tp823
F20
s(I3
I1
tp824
F20
s(I2
I1
tp825
F20
s(I2
I0
tp826
F20
s(I1
I0
tp827
F20
s(I1
I1
tp828
F20
ss(I0
I-1
tp829
(dp830
(I3
I0
tp831
F20
s(I3
I1
tp832
F20
s(I2
I1
tp833
F20
s(I2
I0
tp834
F20
s(I1
I0
tp835
F20
s(I1
I1
tp836
F20
ss(I1
I0
tp837
(dp838
(I3
I0
tp839
F20
s(I3
I1
tp840
F20
s(I2
I1
tp841
F20
s(I2
I0
tp842
F20
s(I1
I0
tp843
F20
s(I1
I1
tp844
F20
ss(I1
I-1
tp845
(dp846
(I3
I0
tp847
F20
s(I3
I1
tp848
F20
s(I2
I1
tp849
F20
s(I2
I0
tp850
F20
s(I1
I0
tp851
F20
s(I1
I1
tp852
F20
ss(I1
I1
tp853
(dp854
(I3
I0
tp855
F20
s(I3
I1
tp856
F20
s(I2
I1
tp857
F20
s(I2
I0
tp858
F20
s(I1
I0
tp859
F20
s(I1
I1
tp860
F20
sss(I5
I0
tp861
(dp862
(I0
I1
tp863
(dp864
(I5
I1
tp865
F20
s(I4
I1
tp866
F20
s(I5
I0
tp867
F20
s(I4
I0
tp868
F20
ss(I-1
I1
tp869
(dp870
(I5
I1
tp871
F20
s(I4
I1
tp872
F20
s(I5
I0
tp873
F20
s(I4
I0
tp874
F20
ss(I0
I0
tp875
(dp876
(I5
I1
tp877
F20
s(I4
I1
tp878
F20
s(I5
I0
tp879
F20
s(I4
I0
tp880
F20
ss(I-1
I0
tp881
(dp882
(I5
I1
tp883
F20
s(I4
I1
tp884
F20
s(I5
I0
tp885
F20
s(I4
I0
tp886
F20
ss(I-1
I-1
tp887
(dp888
(I5
I1
tp889
F20
s(I4
I1
tp890
F20
s(I5
I0
tp891
F20
s(I4
I0
tp892
F20
ss(I0
I-1
tp893
(dp894
(I5
I1
tp895
F20
s(I4
I1
tp896
F20
s(I5
I0
tp897
F20
s(I4
I0
tp898
F20
ss(I1
I0
tp899
(dp900
(I5
I1
tp901
F20
s(I4
I1
tp902
F20
s(I5
I0
tp903
F20
s(I4
I0
tp904
F20
ss(I1
I-1
tp905
(dp906
(I5
I1
tp907
F20
s(I4
I1
tp908
F20
s(I5
I0
tp909
F20
s(I4
I0
tp910
F20
ss(I1
I1
tp911
(dp912
(I5
I1
tp913
F20
s(I4
I1
tp914
F20
s(I5
I0
tp915
F20
s(I4
I0
tp916
F20
sss(I2
I2
tp917
(dp918
(I0
I1
tp919
(dp920
(I1
I2
tp921
F20
s(I3
I2
tp922
F20
s(I3
I1
tp923
F20
s(I2
I1
tp924
F20
s(I2
I2
tp925
F20
s(I1
I1
tp926
F20
ss(I-1
I1
tp927
(dp928
(I1
I2
tp929
F20
s(I3
I2
tp930
F20
s(I3
I1
tp931
F20
s(I2
I1
tp932
F20
s(I2
I2
tp933
F20
s(I1
I1
tp934
F20
ss(I0
I0
tp935
(dp936
(I1
I2
tp937
F20
s(I3
I2
tp938
F20
s(I3
I1
tp939
F20
s(I2
I1
tp940
F20
s(I2
I2
tp941
F20
s(I1
I1
tp942
F20
ss(I-1
I0
tp943
(dp944
(I1
I2
tp945
F20
s(I3
I2
tp946
F20
s(I3
I1
tp947
F20
s(I2
I1
tp948
F20
s(I2
I2
tp949
F20
s(I1
I1
tp950
F20
ss(I-1
I-1
tp951
(dp952
(I1
I2
tp953
F20
s(I3
I2
tp954
F20
s(I3
I1
tp955
F20
s(I2
I1
tp956
F20
s(I2
I2
tp957
F20
s(I1
I1
tp958
F20
ss(I0
I-1
tp959
(dp960
(I1
I2
tp961
F20
s(I3
I2
tp962
F20
s(I3
I1
tp963
F20
s(I2
I1
tp964
F20
s(I2
I2
tp965
F20
s(I1
I1
tp966
F20
ss(I1
I0
tp967
(dp968
(I1
I2
tp969
F20
s(I3
I2
tp970
F20
s(I3
I1
tp971
F20
s(I2
I1
tp972
F20
s(I2
I2
tp973
F20
s(I1
I1
tp974
F20
ss(I1
I-1
tp975
(dp976
(I1
I2
tp977
F20
s(I3
I2
tp978
F20
s(I3
I1
tp979
F20
s(I2
I1
tp980
F20
s(I2
I2
tp981
F20
s(I1
I1
tp982
F20
ss(I1
I1
tp983
(dp984
(I1
I2
tp985
F20
s(I3
I2
tp986
F20
s(I3
I1
tp987
F20
s(I2
I1
tp988
F20
s(I2
I2
tp989
F20
s(I1
I1
tp990
F20
sss(I5
I1
tp991
(dp992
(I0
I1
tp993
(dp994
(I5
I2
tp995
F20
s(I5
I0
tp996
F20
s(I5
I1
tp997
F20
s(I4
I2
tp998
F20
s(I4
I1
tp999
F20
s(I4
I0
tp1000
F20
ss(I-1
I1
tp1001
(dp1002
(I5
I2
tp1003
F20
s(I5
I0
tp1004
F20
s(I5
I1
tp1005
F20
s(I4
I2
tp1006
F20
s(I4
I1
tp1007
F20
s(I4
I0
tp1008
F20
ss(I0
I0
tp1009
(dp1010
(I5
I2
tp1011
F20
s(I5
I0
tp1012
F20
s(I5
I1
tp1013
F20
s(I4
I2
tp1014
F20
s(I4
I1
tp1015
F20
s(I4
I0
tp1016
F20
ss(I-1
I0
tp1017
(dp1018
(I5
I2
tp1019
F20
s(I5
I0
tp1020
F20
s(I5
I1
tp1021
F20
s(I4
I2
tp1022
F20
s(I4
I1
tp1023
F20
s(I4
I0
tp1024
F20
ss(I-1
I-1
tp1025
(dp1026
(I5
I2
tp1027
F20
s(I5
I0
tp1028
F20
s(I5
I1
tp1029
F20
s(I4
I2
tp1030
F20
s(I4
I1
tp1031
F20
s(I4
I0
tp1032
F20
ss(I0
I-1
tp1033
(dp1034
(I5
I2
tp1035
F20
s(I5
I0
tp1036
F20
s(I5
I1
tp1037
F20
s(I4
I2
tp1038
F20
s(I4
I1
tp1039
F20
s(I4
I0
tp1040
F20
ss(I1
I0
tp1041
(dp1042
(I5
I2
tp1043
F20
s(I5
I0
tp1044
F20
s(I5
I1
tp1045
F20
s(I4
I2
tp1046
F20
s(I4
I1
tp1047
F20
s(I4
I0
tp1048
F20
ss(I1
I-1
tp1049
(dp1050
(I5
I2
tp1051
F20
s(I5
I0
tp1052
F20
s(I5
I1
tp1053
F20
s(I4
I2
tp1054
F20
s(I4
I1
tp1055
F20
s(I4
I0
tp1056
F20
ss(I1
I1
tp1057
(dp1058
(I5
I2
tp1059
F20
s(I5
I0
tp1060
F20
s(I5
I1
tp1061
F20
s(I4
I2
tp1062
F20
s(I4
I1
tp1063
F20
s(I4
I0
tp1064
F20
sss(I1
I0
tp1065
(dp1066
(I0
I1
tp1067
(dp1068
(I0
I1
tp1069
F20
s(I0
I0
tp1070
F20
s(I2
I1
tp1071
F20
s(I2
I0
tp1072
F20
s(I1
I0
tp1073
F20
s(I1
I1
tp1074
F20
ss(I-1
I1
tp1075
(dp1076
(I0
I1
tp1077
F20
s(I0
I0
tp1078
F20
s(I2
I1
tp1079
F20
s(I2
I0
tp1080
F20
s(I1
I0
tp1081
F20
s(I1
I1
tp1082
F20
ss(I0
I0
tp1083
(dp1084
(I0
I1
tp1085
F20
s(I0
I0
tp1086
F20
s(I2
I1
tp1087
F20
s(I2
I0
tp1088
F20
s(I1
I0
tp1089
F20
s(I1
I1
tp1090
F20
ss(I-1
I0
tp1091
(dp1092
(I0
I1
tp1093
F20
s(I0
I0
tp1094
F20
s(I2
I1
tp1095
F20
s(I2
I0
tp1096
F20
s(I1
I0
tp1097
F20
s(I1
I1
tp1098
F20
ss(I-1
I-1
tp1099
(dp1100
(I0
I1
tp1101
F20
s(I0
I0
tp1102
F20
s(I2
I1
tp1103
F20
s(I2
I0
tp1104
F20
s(I1
I0
tp1105
F20
s(I1
I1
tp1106
F20
ss(I0
I-1
tp1107
(dp1108
(I0
I1
tp1109
F20
s(I0
I0
tp1110
F20
s(I2
I1
tp1111
F20
s(I2
I0
tp1112
F20
s(I1
I0
tp1113
F20
s(I1
I1
tp1114
F20
ss(I1
I0
tp1115
(dp1116
(I0
I1
tp1117
F20
s(I0
I0
tp1118
F20
s(I2
I1
tp1119
F20
s(I2
I0
tp1120
F20
s(I1
I0
tp1121
F20
s(I1
I1
tp1122
F20
ss(I1
I-1
tp1123
(dp1124
(I0
I1
tp1125
F20
s(I0
I0
tp1126
F20
s(I2
I1
tp1127
F20
s(I2
I0
tp1128
F20
s(I1
I0
tp1129
F20
s(I1
I1
tp1130
F20
ss(I1
I1
tp1131
(dp1132
(I0
I1
tp1133
F20
s(I0
I0
tp1134
F20
s(I2
I1
tp1135
F20
s(I2
I0
tp1136
F20
s(I1
I0
tp1137
F20
s(I1
I1
tp1138
F20
sss(I5
I2
tp1139
(dp1140
(I0
I1
tp1141
(dp1142
(I4
I2
tp1143
F20
s(I4
I1
tp1144
F20
s(I5
I2
tp1145
F20
s(I5
I1
tp1146
F20
ss(I-1
I1
tp1147
(dp1148
(I4
I2
tp1149
F20
s(I4
I1
tp1150
F20
s(I5
I2
tp1151
F20
s(I5
I1
tp1152
F20
ss(I0
I0
tp1153
(dp1154
(I4
I2
tp1155
F20
s(I4
I1
tp1156
F20
s(I5
I2
tp1157
F20
s(I5
I1
tp1158
F20
ss(I-1
I0
tp1159
(dp1160
(I4
I2
tp1161
F20
s(I4
I1
tp1162
F20
s(I5
I2
tp1163
F20
s(I5
I1
tp1164
F20
ss(I-1
I-1
tp1165
(dp1166
(I4
I2
tp1167
F20
s(I4
I1
tp1168
F20
s(I5
I2
tp1169
F20
s(I5
I1
tp1170
F20
ss(I0
I-1
tp1171
(dp1172
(I4
I2
tp1173
F20
s(I4
I1
tp1174
F20
s(I5
I2
tp1175
F20
s(I5
I1
tp1176
F20
ss(I1
I0
tp1177
(dp1178
(I4
I2
tp1179
F20
s(I4
I1
tp1180
F20
s(I5
I2
tp1181
F20
s(I5
I1
tp1182
F20
ss(I1
I-1
tp1183
(dp1184
(I4
I2
tp1185
F20
s(I4
I1
tp1186
F20
s(I5
I2
tp1187
F20
s(I5
I1
tp1188
F20
ss(I1
I1
tp1189
(dp1190
(I4
I2
tp1191
F20
s(I4
I1
tp1192
F20
s(I5
I2
tp1193
F20
s(I5
I1
tp1194
F20
sss(I1
I1
tp1195
(dp1196
(I0
I1
tp1197
(dp1198
(I0
I1
tp1199
F20
s(I1
I2
tp1200
F20
s(I0
I0
tp1201
F20
s(I2
I1
tp1202
F20
s(I0
I2
tp1203
F20
s(I2
I0
tp1204
F20
s(I2
I2
tp1205
F20
s(I1
I0
tp1206
F20
s(I1
I1
tp1207
F20
ss(I-1
I1
tp1208
(dp1209
(I0
I1
tp1210
F20
s(I1
I2
tp1211
F20
s(I0
I0
tp1212
F20
s(I2
I1
tp1213
F20
s(I0
I2
tp1214
F20
s(I2
I0
tp1215
F20
s(I2
I2
tp1216
F20
s(I1
I0
tp1217
F20
s(I1
I1
tp1218
F20
ss(I0
I0
tp1219
(dp1220
(I0
I1
tp1221
F20
s(I1
I2
tp1222
F20
s(I0
I0
tp1223
F20
s(I2
I1
tp1224
F20
s(I0
I2
tp1225
F20
s(I2
I0
tp1226
F20
s(I2
I2
tp1227
F20
s(I1
I0
tp1228
F20
s(I1
I1
tp1229
F20
ss(I-1
I0
tp1230
(dp1231
(I0
I1
tp1232
F20
s(I1
I2
tp1233
F20
s(I0
I0
tp1234
F20
s(I2
I1
tp1235
F20
s(I0
I2
tp1236
F20
s(I2
I0
tp1237
F20
s(I2
I2
tp1238
F20
s(I1
I0
tp1239
F20
s(I1
I1
tp1240
F20
ss(I-1
I-1
tp1241
(dp1242
(I0
I1
tp1243
F20
s(I1
I2
tp1244
F20
s(I0
I0
tp1245
F20
s(I2
I1
tp1246
F20
s(I0
I2
tp1247
F20
s(I2
I0
tp1248
F20
s(I2
I2
tp1249
F20
s(I1
I0
tp1250
F20
s(I1
I1
tp1251
F20
ss(I0
I-1
tp1252
(dp1253
(I0
I1
tp1254
F20
s(I1
I2
tp1255
F20
s(I0
I0
tp1256
F20
s(I2
I1
tp1257
F20
s(I0
I2
tp1258
F20
s(I2
I0
tp1259
F20
s(I2
I2
tp1260
F20
s(I1
I0
tp1261
F20
s(I1
I1
tp1262
F20
ss(I1
I0
tp1263
(dp1264
(I0
I1
tp1265
F20
s(I1
I2
tp1266
F20
s(I0
I0
tp1267
F20
s(I2
I1
tp1268
F20
s(I0
I2
tp1269
F20
s(I2
I0
tp1270
F20
s(I2
I2
tp1271
F20
s(I1
I0
tp1272
F20
s(I1
I1
tp1273
F20
ss(I1
I-1
tp1274
(dp1275
(I0
I1
tp1276
F20
s(I1
I2
tp1277
F20
s(I0
I0
tp1278
F20
s(I2
I1
tp1279
F20
s(I0
I2
tp1280
F20
s(I2
I0
tp1281
F20
s(I2
I2
tp1282
F20
s(I1
I0
tp1283
F20
s(I1
I1
tp1284
F20
ss(I1
I1
tp1285
(dp1286
(I0
I1
tp1287
F20
s(I1
I2
tp1288
F20
s(I0
I0
tp1289
F20
s(I2
I1
tp1290
F20
s(I0
I2
tp1291
F20
s(I2
I0
tp1292
F20
s(I2
I2
tp1293
F20
s(I1
I0
tp1294
F20
s(I1
I1
tp1295
F20
sss(I4
I0
tp1296
(dp1297
(I0
I1
tp1298
(dp1299
(I3
I0
tp1300
F20
s(I3
I1
tp1301
F20
s(I5
I0
tp1302
F20
s(I5
I1
tp1303
F20
s(I4
I1
tp1304
F20
s(I4
I0
tp1305
F20
ss(I-1
I1
tp1306
(dp1307
(I3
I0
tp1308
F20
s(I3
I1
tp1309
F20
s(I5
I0
tp1310
F20
s(I5
I1
tp1311
F20
s(I4
I1
tp1312
F20
s(I4
I0
tp1313
F20
ss(I0
I0
tp1314
(dp1315
(I3
I0
tp1316
F20
s(I3
I1
tp1317
F20
s(I5
I0
tp1318
F20
s(I5
I1
tp1319
F20
s(I4
I1
tp1320
F20
s(I4
I0
tp1321
F20
ss(I-1
I0
tp1322
(dp1323
(I3
I0
tp1324
F20
s(I3
I1
tp1325
F20
s(I5
I0
tp1326
F20
s(I5
I1
tp1327
F20
s(I4
I1
tp1328
F20
s(I4
I0
tp1329
F20
ss(I-1
I-1
tp1330
(dp1331
(I3
I0
tp1332
F20
s(I3
I1
tp1333
F20
s(I5
I0
tp1334
F20
s(I5
I1
tp1335
F20
s(I4
I1
tp1336
F20
s(I4
I0
tp1337
F20
ss(I0
I-1
tp1338
(dp1339
(I3
I0
tp1340
F20
s(I3
I1
tp1341
F20
s(I5
I0
tp1342
F20
s(I5
I1
tp1343
F20
s(I4
I1
tp1344
F20
s(I4
I0
tp1345
F20
ss(I1
I0
tp1346
(dp1347
(I3
I0
tp1348
F20
s(I3
I1
tp1349
F20
s(I5
I0
tp1350
F20
s(I5
I1
tp1351
F20
s(I4
I1
tp1352
F20
s(I4
I0
tp1353
F20
ss(I1
I-1
tp1354
(dp1355
(I3
I0
tp1356
F20
s(I3
I1
tp1357
F20
s(I5
I0
tp1358
F20
s(I5
I1
tp1359
F20
s(I4
I1
tp1360
F20
s(I4
I0
tp1361
F20
ss(I1
I1
tp1362
(dp1363
(I3
I0
tp1364
F20
s(I3
I1
tp1365
F20
s(I5
I0
tp1366
F20
s(I5
I1
tp1367
F20
s(I4
I1
tp1368
F20
s(I4
I0
tp1369
F20
sss.